target datalayout = "e-m:e-p270:32:32-p271:32:32-p272:64:64-i64:64-i128:128-f80:128-n8:16:32:64-S128"
target triple = "x86_64-pc-linux-gnu"

%struct.prov_gcm_ctx_st = type { i32, i64, i64, i64, i64, i64, i64, i64, i64, i64, i32, i8, [128 x i8], [16 x i8], ptr, ptr, %struct.gcm128_context, ptr }
%struct.gcm128_context = type { %union.anon, %union.anon, %union.anon, %union.anon, %union.anon, %union.anon, [16 x %struct.u128], %struct.gcm_funcs_st, i32, i32, ptr, ptr, [48 x i8] }
%union.anon = type { [2 x i64] }
%struct.u128 = type { i64, i64 }
%struct.gcm_funcs_st = type { ptr, ptr, ptr }
%struct.prov_aes_gcm_ctx_st = type { %struct.prov_gcm_ctx_st, %union.anon.0, %union.anon.1 }
%union.anon.0 = type { double, [240 x i8] }
%union.anon.1 = type { i32 }

; Function Attrs: nounwind uwtable
define internal i32 @aesni_gcm_initkey(ptr noundef %0, ptr noundef %1, i64 noundef %2) #0 {
  %4 = alloca ptr, align 8
  %5 = alloca ptr, align 8
  %6 = alloca i64, align 8
  %7 = alloca ptr, align 8
  %8 = alloca ptr, align 8
  store ptr %0, ptr %4, align 8, !tbaa !9
  store ptr %1, ptr %5, align 8, !tbaa !12
  store i64 %2, ptr %6, align 8, !tbaa !3
  call void @llvm.lifetime.start.p0(i64 8, ptr %7) #5
  %9 = load ptr, ptr %4, align 8, !tbaa !9
  store ptr %9, ptr %7, align 8, !tbaa !16
  call void @llvm.lifetime.start.p0(i64 8, ptr %8) #5
  %10 = load ptr, ptr %7, align 8, !tbaa !16
  %11 = getelementptr inbounds nuw %struct.prov_aes_gcm_ctx_st, ptr %10, i32 0, i32 1
  store ptr %11, ptr %8, align 8, !tbaa !18
  %12 = load ptr, ptr %5, align 8, !tbaa !12
  %13 = load i64, ptr %6, align 8, !tbaa !3
  %14 = mul i64 %13, 8
  %15 = trunc i64 %14 to i32
  %16 = load ptr, ptr %8, align 8, !tbaa !18
  %17 = call i32 @aesni_set_encrypt_key(ptr noundef %12, i32 noundef %15, ptr noundef %16)
  %18 = load ptr, ptr %4, align 8, !tbaa !9
  %19 = getelementptr inbounds nuw %struct.prov_gcm_ctx_st, ptr %18, i32 0, i32 16
  %20 = load ptr, ptr %8, align 8, !tbaa !18
  call void @CRYPTO_gcm128_init(ptr noundef %19, ptr noundef %20, ptr noundef @aesni_encrypt)
  %21 = load ptr, ptr %4, align 8, !tbaa !9
  %22 = getelementptr inbounds nuw %struct.prov_gcm_ctx_st, ptr %21, i32 0, i32 17
  store ptr @aesni_ctr32_encrypt_blocks, ptr %22, align 8, !tbaa !37
  %23 = load ptr, ptr %4, align 8, !tbaa !9
  %24 = getelementptr inbounds nuw %struct.prov_gcm_ctx_st, ptr %23, i32 0, i32 11
  %25 = load i8, ptr %24, align 4
  %26 = and i8 %25, -5
  %27 = or i8 %26, 4
  store i8 %27, ptr %24, align 4
  call void @llvm.lifetime.end.p0(i64 8, ptr %8) #5
  call void @llvm.lifetime.end.p0(i64 8, ptr %7) #5
  ret i32 1
}