; Function Attrs: nounwind uwtable
define internal noundef i32 @aesni_gcm_initkey(ptr noundef %0, ptr noundef %1, i64 noundef %2) #0 {
  %4 = getelementptr inbounds nuw i8, ptr %0, i64 704
  %.tr = trunc i64 %2 to i32
  %5 = shl i32 %.tr, 3
  %6 = tail call i32 @aesni_set_encrypt_key(ptr noundef %1, i32 noundef %5, ptr noundef nonnull %4) #4
  %7 = getelementptr inbounds nuw i8, ptr %0, i64 248
  tail call void @CRYPTO_gcm128_init(ptr noundef nonnull %7, ptr noundef nonnull %4, ptr noundef nonnull @aesni_encrypt) #4
  %8 = getelementptr inbounds nuw i8, ptr %0, i64 696
  store ptr @aesni_ctr32_encrypt_blocks, ptr %8, align 8, !tbaa !22
  %9 = getelementptr inbounds nuw i8, ptr %0, i64 84
  %10 = load i8, ptr %9, align 4
  %11 = or i8 %10, 4
  store i8 %11, ptr %9, align 4
  ret i32 1
}